target datalayout = "e-m:e-p270:32:32-p271:32:32-p272:64:64-i64:64-i128:128-f80:128-n8:16:32:64-S128"
target triple = "x86_64-pc-linux-gnu"

%struct.AVFilterContext = type { ptr, ptr, ptr, ptr, ptr, i32, ptr, ptr, i32, ptr, ptr, i32, i32, ptr, ptr, ptr, ptr, i32, ptr, i32, i32 }
%struct.MergePlanesContext = type { ptr, i64, i32, i32, i32, [4 x i32], [4 x i32], [4 x %struct.Mapping], [4 x ptr], ptr, %struct.FFFrameSync }
%struct.Mapping = type { i32, i32 }
%struct.FFFrameSync = type { ptr, ptr, i32, %struct.AVRational, i64, ptr, ptr, i32, i32, i8, i8, ptr, i32, i32, i32, i32 }
%struct.AVRational = type { i32, i32 }
%struct.AVPixFmtDescriptor = type { ptr, i8, i8, i8, i64, [4 x %struct.AVComponentDescriptor], ptr }
%struct.AVComponentDescriptor = type { i32, i32, i32, i32, i32 }
%struct.AVFilterFormatsConfig = type { ptr, ptr, ptr, ptr, ptr }
%struct.AVFilterLink = type { ptr, ptr, ptr, ptr, i32, i32, i32, i32, %struct.AVRational, i32, i32, i32, %struct.AVChannelLayout, %struct.AVRational, ptr, i32, %struct.AVFilterFormatsConfig, %struct.AVFilterFormatsConfig }
%struct.AVChannelLayout = type { i32, i32, %union.anon.1, ptr }
%union.anon.1 = type { i64 }
%struct.AVFrame = type { [8 x ptr], [8 x i32], ptr, i32, i32, i32, i32, i32, %struct.AVRational, i64, i64, %struct.AVRational, i32, ptr, i32, i32, [8 x ptr], ptr, i32, ptr, i32, i32, i32, i32, i32, i32, i32, i64, ptr, i32, ptr, ptr, i64, i64, i64, i64, ptr, %struct.AVChannelLayout, i64 }

; Function Attrs: nounwind uwtable
define internal i32 @process_frame(ptr noundef %0) #1 {
  %2 = alloca i32, align 4
  %3 = alloca ptr, align 8
  %4 = alloca ptr, align 8
  %5 = alloca ptr, align 8
  %6 = alloca ptr, align 8
  %7 = alloca [4 x ptr], align 16
  %8 = alloca ptr, align 8
  %9 = alloca i32, align 4
  %10 = alloca i32, align 4
  %11 = alloca i32, align 4
  %12 = alloca i32, align 4
  %13 = alloca i32, align 4
  store ptr %0, ptr %3, align 8, !tbaa !97
  call void @llvm.lifetime.start.p0(i64 8, ptr %4) #10
  %14 = load ptr, ptr %3, align 8, !tbaa !97
  %15 = getelementptr inbounds nuw %struct.FFFrameSync, ptr %14, i32 0, i32 1
  %16 = load ptr, ptr %15, align 8, !tbaa !99
  store ptr %16, ptr %4, align 8, !tbaa !4
  call void @llvm.lifetime.start.p0(i64 8, ptr %5) #10
  %17 = load ptr, ptr %4, align 8, !tbaa !4
  %18 = getelementptr inbounds nuw %struct.AVFilterContext, ptr %17, i32 0, i32 7
  %19 = load ptr, ptr %18, align 8, !tbaa !100
  %20 = getelementptr inbounds ptr, ptr %19, i64 0
  %21 = load ptr, ptr %20, align 8, !tbaa !60
  store ptr %21, ptr %5, align 8, !tbaa !60
  call void @llvm.lifetime.start.p0(i64 8, ptr %6) #10
  %22 = load ptr, ptr %3, align 8, !tbaa !97
  %23 = getelementptr inbounds nuw %struct.FFFrameSync, ptr %22, i32 0, i32 6
  %24 = load ptr, ptr %23, align 8, !tbaa !101
  store ptr %24, ptr %6, align 8, !tbaa !22
  call void @llvm.lifetime.start.p0(i64 32, ptr %7) #10
  call void @llvm.memset.p0.i64(ptr align 16 %7, i8 0, i64 32, i1 false)
  call void @llvm.lifetime.start.p0(i64 8, ptr %8) #10
  call void @llvm.lifetime.start.p0(i64 4, ptr %9) #10
  call void @llvm.lifetime.start.p0(i64 4, ptr %10) #10
  store i32 0, ptr %9, align 4, !tbaa !38
  br label %25

25:                                               ; preds = %43, %1
  %26 = load i32, ptr %9, align 4, !tbaa !38
  %27 = load ptr, ptr %6, align 8, !tbaa !22
  %28 = getelementptr inbounds nuw %struct.MergePlanesContext, ptr %27, i32 0, i32 3
  %29 = load i32, ptr %28, align 4, !tbaa !42
  %30 = icmp slt i32 %26, %29
  br i1 %30, label %31, label %46

31:                                               ; preds = %25
  %32 = load ptr, ptr %6, align 8, !tbaa !22
  %33 = getelementptr inbounds nuw %struct.MergePlanesContext, ptr %32, i32 0, i32 10
  %34 = load i32, ptr %9, align 4, !tbaa !38
  %35 = load i32, ptr %9, align 4, !tbaa !38
  %36 = sext i32 %35 to i64
  %37 = getelementptr inbounds [4 x ptr], ptr %7, i64 0, i64 %36
  %38 = call i32 @ff_framesync_get_frame(ptr noundef %33, i32 noundef %34, ptr noundef %37, i32 noundef 0)
  store i32 %38, ptr %10, align 4, !tbaa !38
  %39 = icmp slt i32 %38, 0
  br i1 %39, label %40, label %42

40:                                               ; preds = %31
  %41 = load i32, ptr %10, align 4, !tbaa !38
  store i32 %41, ptr %2, align 4
  store i32 1, ptr %11, align 4
  br label %158

42:                                               ; preds = %31
  br label %43

43:                                               ; preds = %42
  %44 = load i32, ptr %9, align 4, !tbaa !38
  %45 = add nsw i32 %44, 1
  store i32 %45, ptr %9, align 4, !tbaa !38
  br label %25, !llvm.loop !102

46:                                               ; preds = %25
  %47 = load ptr, ptr %5, align 8, !tbaa !60
  %48 = load ptr, ptr %5, align 8, !tbaa !60
  %49 = getelementptr inbounds nuw %struct.AVFilterLink, ptr %48, i32 0, i32 6
  %50 = load i32, ptr %49, align 8, !tbaa !75
  %51 = load ptr, ptr %5, align 8, !tbaa !60
  %52 = getelementptr inbounds nuw %struct.AVFilterLink, ptr %51, i32 0, i32 7
  %53 = load i32, ptr %52, align 4, !tbaa !76
  %54 = call ptr @ff_get_video_buffer(ptr noundef %47, i32 noundef %50, i32 noundef %53)
  store ptr %54, ptr %8, align 8, !tbaa !103
  %55 = load ptr, ptr %8, align 8, !tbaa !103
  %56 = icmp ne ptr %55, null
  br i1 %56, label %58, label %57

57:                                               ; preds = %46
  store i32 -12, ptr %2, align 4
  store i32 1, ptr %11, align 4
  br label %158

58:                                               ; preds = %46
  %59 = load ptr, ptr %6, align 8, !tbaa !22
  %60 = getelementptr inbounds nuw %struct.MergePlanesContext, ptr %59, i32 0, i32 10
  %61 = getelementptr inbounds nuw %struct.FFFrameSync, ptr %60, i32 0, i32 4
  %62 = load i64, ptr %61, align 8, !tbaa !104
  %63 = load ptr, ptr %6, align 8, !tbaa !22
  %64 = getelementptr inbounds nuw %struct.MergePlanesContext, ptr %63, i32 0, i32 10
  %65 = getelementptr inbounds nuw %struct.FFFrameSync, ptr %64, i32 0, i32 3
  %66 = load ptr, ptr %5, align 8, !tbaa !60
  %67 = getelementptr inbounds nuw %struct.AVFilterLink, ptr %66, i32 0, i32 13
  %68 = load i64, ptr %65, align 4
  %69 = load i64, ptr %67, align 8
  %70 = call i64 @av_rescale_q(i64 noundef %62, i64 %68, i64 %69) #12
  %71 = load ptr, ptr %8, align 8, !tbaa !103
  %72 = getelementptr inbounds nuw %struct.AVFrame, ptr %71, i32 0, i32 9
  store i64 %70, ptr %72, align 8, !tbaa !105
  store i32 0, ptr %9, align 4, !tbaa !38
  br label %73

73:                                               ; preds = %151, %58
  %74 = load i32, ptr %9, align 4, !tbaa !38
  %75 = load ptr, ptr %6, align 8, !tbaa !22
  %76 = getelementptr inbounds nuw %struct.MergePlanesContext, ptr %75, i32 0, i32 4
  %77 = load i32, ptr %76, align 8, !tbaa !37
  %78 = icmp slt i32 %74, %77
  br i1 %78, label %79, label %154

79:                                               ; preds = %73
  call void @llvm.lifetime.start.p0(i64 4, ptr %12) #10
  %80 = load ptr, ptr %6, align 8, !tbaa !22
  %81 = getelementptr inbounds nuw %struct.MergePlanesContext, ptr %80, i32 0, i32 7
  %82 = load i32, ptr %9, align 4, !tbaa !38
  %83 = sext i32 %82 to i64
  %84 = getelementptr inbounds [4 x %struct.Mapping], ptr %81, i64 0, i64 %83
  %85 = getelementptr inbounds nuw %struct.Mapping, ptr %84, i32 0, i32 0
  %86 = load i32, ptr %85, align 4, !tbaa !41
  store i32 %86, ptr %12, align 4, !tbaa !38
  call void @llvm.lifetime.start.p0(i64 4, ptr %13) #10
  %87 = load ptr, ptr %6, align 8, !tbaa !22
  %88 = getelementptr inbounds nuw %struct.MergePlanesContext, ptr %87, i32 0, i32 7
  %89 = load i32, ptr %9, align 4, !tbaa !38
  %90 = sext i32 %89 to i64
  %91 = getelementptr inbounds [4 x %struct.Mapping], ptr %88, i64 0, i64 %90
  %92 = getelementptr inbounds nuw %struct.Mapping, ptr %91, i32 0, i32 1
  %93 = load i32, ptr %92, align 4, !tbaa !39
  store i32 %93, ptr %13, align 4, !tbaa !38
  %94 = load ptr, ptr %8, align 8, !tbaa !103
  %95 = getelementptr inbounds nuw %struct.AVFrame, ptr %94, i32 0, i32 0
  %96 = load i32, ptr %9, align 4, !tbaa !38
  %97 = sext i32 %96 to i64
  %98 = getelementptr inbounds [8 x ptr], ptr %95, i64 0, i64 %97
  %99 = load ptr, ptr %98, align 8, !tbaa !110
  %100 = load ptr, ptr %8, align 8, !tbaa !103
  %101 = getelementptr inbounds nuw %struct.AVFrame, ptr %100, i32 0, i32 1
  %102 = load i32, ptr %9, align 4, !tbaa !38
  %103 = sext i32 %102 to i64
  %104 = getelementptr inbounds [8 x i32], ptr %101, i64 0, i64 %103
  %105 = load i32, ptr %104, align 4, !tbaa !38
  %106 = load i32, ptr %12, align 4, !tbaa !38
  %107 = sext i32 %106 to i64
  %108 = getelementptr inbounds [4 x ptr], ptr %7, i64 0, i64 %107
  %109 = load ptr, ptr %108, align 8, !tbaa !103
  %110 = getelementptr inbounds nuw %struct.AVFrame, ptr %109, i32 0, i32 0
  %111 = load i32, ptr %13, align 4, !tbaa !38
  %112 = sext i32 %111 to i64
  %113 = getelementptr inbounds [8 x ptr], ptr %110, i64 0, i64 %112
  %114 = load ptr, ptr %113, align 8, !tbaa !110
  %115 = load i32, ptr %12, align 4, !tbaa !38
  %116 = sext i32 %115 to i64
  %117 = getelementptr inbounds [4 x ptr], ptr %7, i64 0, i64 %116
  %118 = load ptr, ptr %117, align 8, !tbaa !103
  %119 = getelementptr inbounds nuw %struct.AVFrame, ptr %118, i32 0, i32 1
  %120 = load i32, ptr %13, align 4, !tbaa !38
  %121 = sext i32 %120 to i64
  %122 = getelementptr inbounds [8 x i32], ptr %119, i64 0, i64 %121
  %123 = load i32, ptr %122, align 4, !tbaa !38
  %124 = load ptr, ptr %6, align 8, !tbaa !22
  %125 = getelementptr inbounds nuw %struct.MergePlanesContext, ptr %124, i32 0, i32 5
  %126 = load i32, ptr %9, align 4, !tbaa !38
  %127 = sext i32 %126 to i64
  %128 = getelementptr inbounds [4 x i32], ptr %125, i64 0, i64 %127
  %129 = load i32, ptr %128, align 4, !tbaa !38
  %130 = load ptr, ptr %6, align 8, !tbaa !22
  %131 = getelementptr inbounds nuw %struct.MergePlanesContext, ptr %130, i32 0, i32 8
  %132 = load i32, ptr %12, align 4, !tbaa !38
  %133 = sext i32 %132 to i64
  %134 = getelementptr inbounds [4 x ptr], ptr %131, i64 0, i64 %133
  %135 = load ptr, ptr %134, align 8, !tbaa !53
  %136 = getelementptr inbounds nuw %struct.AVPixFmtDescriptor, ptr %135, i32 0, i32 5
  %137 = load i32, ptr %13, align 4, !tbaa !38
  %138 = sext i32 %137 to i64
  %139 = getelementptr inbounds [4 x %struct.AVComponentDescriptor], ptr %136, i64 0, i64 %138
  %140 = getelementptr inbounds nuw %struct.AVComponentDescriptor, ptr %139, i32 0, i32 4
  %141 = load i32, ptr %140, align 4, !tbaa !54
  %142 = add nsw i32 %141, 7
  %143 = sdiv i32 %142, 8
  %144 = mul nsw i32 %129, %143
  %145 = load ptr, ptr %6, align 8, !tbaa !22
  %146 = getelementptr inbounds nuw %struct.MergePlanesContext, ptr %145, i32 0, i32 6
  %147 = load i32, ptr %9, align 4, !tbaa !38
  %148 = sext i32 %147 to i64
  %149 = getelementptr inbounds [4 x i32], ptr %146, i64 0, i64 %148
  %150 = load i32, ptr %149, align 4, !tbaa !38
  call void @av_image_copy_plane(ptr noundef %99, i32 noundef %105, ptr noundef %114, i32 noundef %123, i32 noundef %144, i32 noundef %150)
  call void @llvm.lifetime.end.p0(i64 4, ptr %13) #10
  call void @llvm.lifetime.end.p0(i64 4, ptr %12) #10
  br label %151

151:                                              ; preds = %79
  %152 = load i32, ptr %9, align 4, !tbaa !38
  %153 = add nsw i32 %152, 1
  store i32 %153, ptr %9, align 4, !tbaa !38
  br label %73, !llvm.loop !111

154:                                              ; preds = %73
  %155 = load ptr, ptr %5, align 8, !tbaa !60
  %156 = load ptr, ptr %8, align 8, !tbaa !103
  %157 = call i32 @ff_filter_frame(ptr noundef %155, ptr noundef %156)
  store i32 %157, ptr %2, align 4
  store i32 1, ptr %11, align 4
  br label %158

158:                                              ; preds = %154, %57, %40
  call void @llvm.lifetime.end.p0(i64 4, ptr %10) #10
  call void @llvm.lifetime.end.p0(i64 4, ptr %9) #10
  call void @llvm.lifetime.end.p0(i64 8, ptr %8) #10
  call void @llvm.lifetime.end.p0(i64 32, ptr %7) #10
  call void @llvm.lifetime.end.p0(i64 8, ptr %6) #10
  call void @llvm.lifetime.end.p0(i64 8, ptr %5) #10
  call void @llvm.lifetime.end.p0(i64 8, ptr %4) #10
  %159 = load i32, ptr %2, align 4
  ret i32 %159
}