; Function Attrs: nounwind uwtable
define internal i32 @process_frame(ptr noundef readonly captures(none) %0) #1 {
  %2 = alloca [4 x ptr], align 16
  %3 = getelementptr inbounds nuw i8, ptr %0, i64 8
  %4 = load ptr, ptr %3, align 8, !tbaa !84
  %5 = getelementptr inbounds nuw i8, ptr %4, i64 56
  %6 = load ptr, ptr %5, align 8, !tbaa !85
  %7 = load ptr, ptr %6, align 8, !tbaa !58
  %8 = getelementptr inbounds nuw i8, ptr %0, i64 48
  %9 = load ptr, ptr %8, align 8, !tbaa !86
  call void @llvm.lifetime.start.p0(i64 32, ptr nonnull %2) #8
  call void @llvm.memset.p0.i64(ptr noundef nonnull align 16 dereferenceable(32) %2, i8 0, i64 32, i1 false)
  %10 = getelementptr inbounds nuw i8, ptr %9, i64 20
  %11 = load i32, ptr %10, align 4, !tbaa !34
  %12 = icmp sgt i32 %11, 0
  br i1 %12, label %.lr.ph, label %._crit_edge

.lr.ph:                                           ; preds = %1
  %13 = getelementptr inbounds nuw i8, ptr %9, i64 136
  br label %18

14:                                               ; preds = %18
  %indvars.iv.next = add nuw nsw i64 %indvars.iv, 1
  %15 = load i32, ptr %10, align 4, !tbaa !34
  %16 = sext i32 %15 to i64
  %17 = icmp slt i64 %indvars.iv.next, %16
  br i1 %17, label %18, label %._crit_edge, !llvm.loop !87

18:                                               ; preds = %.lr.ph, %14
  %indvars.iv = phi i64 [ 0, %.lr.ph ], [ %indvars.iv.next, %14 ]
  %19 = getelementptr inbounds nuw [4 x ptr], ptr %2, i64 0, i64 %indvars.iv
  %20 = trunc nuw nsw i64 %indvars.iv to i32
  %21 = call i32 @ff_framesync_get_frame(ptr noundef nonnull %13, i32 noundef %20, ptr noundef nonnull %19, i32 noundef 0) #8
  %22 = icmp slt i32 %21, 0
  br i1 %22, label %.loopexit, label %14

._crit_edge:                                      ; preds = %14, %1
  %23 = getelementptr inbounds nuw i8, ptr %7, i64 40
  %24 = load i32, ptr %23, align 8, !tbaa !63
  %25 = getelementptr inbounds nuw i8, ptr %7, i64 44
  %26 = load i32, ptr %25, align 4, !tbaa !64
  %27 = call ptr @ff_get_video_buffer(ptr noundef %7, i32 noundef %24, i32 noundef %26) #8
  %.not = icmp eq ptr %27, null
  br i1 %.not, label %.loopexit, label %28

28:                                               ; preds = %._crit_edge
  %29 = getelementptr inbounds nuw i8, ptr %9, i64 168
  %30 = load i64, ptr %29, align 8, !tbaa !88
  %31 = getelementptr inbounds nuw i8, ptr %9, i64 156
  %32 = getelementptr inbounds nuw i8, ptr %7, i64 96
  %33 = load i64, ptr %31, align 4
  %34 = load i64, ptr %32, align 8
  %35 = call i64 @av_rescale_q(i64 noundef %30, i64 %33, i64 %34) #10
  %36 = getelementptr inbounds nuw i8, ptr %27, i64 136
  store i64 %35, ptr %36, align 8, !tbaa !89
  %37 = getelementptr inbounds nuw i8, ptr %9, i64 24
  %38 = load i32, ptr %37, align 8, !tbaa !33
  %39 = icmp sgt i32 %38, 0
  br i1 %39, label %.lr.ph48, label %._crit_edge49

.lr.ph48:                                         ; preds = %28
  %40 = getelementptr inbounds nuw i8, ptr %9, i64 60
  %41 = getelementptr inbounds nuw i8, ptr %27, i64 64
  %42 = getelementptr inbounds nuw i8, ptr %9, i64 28
  %43 = getelementptr inbounds nuw i8, ptr %9, i64 96
  %44 = getelementptr inbounds nuw i8, ptr %9, i64 44
  br label %45

45:                                               ; preds = %.lr.ph48, %45
  %indvars.iv52 = phi i64 [ 0, %.lr.ph48 ], [ %indvars.iv.next53, %45 ]
  %46 = getelementptr inbounds nuw [4 x %struct.Mapping], ptr %40, i64 0, i64 %indvars.iv52
  %47 = load i32, ptr %46, align 4, !tbaa !37
  %48 = getelementptr inbounds nuw i8, ptr %46, i64 4
  %49 = load i32, ptr %48, align 4, !tbaa !35
  %50 = getelementptr inbounds nuw [8 x ptr], ptr %27, i64 0, i64 %indvars.iv52
  %51 = load ptr, ptr %50, align 8, !tbaa !94
  %52 = getelementptr inbounds nuw [8 x i32], ptr %41, i64 0, i64 %indvars.iv52
  %53 = load i32, ptr %52, align 4, !tbaa !66
  %54 = sext i32 %47 to i64
  %55 = getelementptr inbounds [4 x ptr], ptr %2, i64 0, i64 %54
  %56 = load ptr, ptr %55, align 8, !tbaa !95
  %57 = sext i32 %49 to i64
  %58 = getelementptr inbounds [8 x ptr], ptr %56, i64 0, i64 %57
  %59 = load ptr, ptr %58, align 8, !tbaa !94
  %60 = getelementptr inbounds nuw i8, ptr %56, i64 64
  %61 = getelementptr inbounds [8 x i32], ptr %60, i64 0, i64 %57
  %62 = load i32, ptr %61, align 4, !tbaa !66
  %63 = getelementptr inbounds nuw [4 x i32], ptr %42, i64 0, i64 %indvars.iv52
  %64 = load i32, ptr %63, align 4, !tbaa !66
  %65 = getelementptr inbounds [4 x ptr], ptr %43, i64 0, i64 %54
  %66 = load ptr, ptr %65, align 8, !tbaa !69
  %.idx = mul nsw i64 %57, 20
  %67 = getelementptr i8, ptr %66, i64 40
  %68 = getelementptr i8, ptr %67, i64 %.idx
  %69 = load i32, ptr %68, align 4, !tbaa !45
  %70 = add nsw i32 %69, 7
  %71 = sdiv i32 %70, 8
  %72 = mul nsw i32 %71, %64
  %73 = getelementptr inbounds nuw [4 x i32], ptr %44, i64 0, i64 %indvars.iv52
  %74 = load i32, ptr %73, align 4, !tbaa !66
  call void @av_image_copy_plane(ptr noundef %51, i32 noundef %53, ptr noundef %59, i32 noundef %62, i32 noundef %72, i32 noundef %74) #8
  %indvars.iv.next53 = add nuw nsw i64 %indvars.iv52, 1
  %75 = load i32, ptr %37, align 8, !tbaa !33
  %76 = sext i32 %75 to i64
  %77 = icmp slt i64 %indvars.iv.next53, %76
  br i1 %77, label %45, label %._crit_edge49, !llvm.loop !96

._crit_edge49:                                    ; preds = %45, %28
  %78 = call i32 @ff_filter_frame(ptr noundef nonnull %7, ptr noundef nonnull %27) #8
  br label %.loopexit

.loopexit:                                        ; preds = %18, %._crit_edge, %._crit_edge49
  %.0 = phi i32 [ %78, %._crit_edge49 ], [ -12, %._crit_edge ], [ %21, %18 ]
  call void @llvm.lifetime.end.p0(i64 32, ptr nonnull %2) #8
  ret i32 %.0
}